; Function Attrs: nounwind uwtable
define internal void @_destroy_text(ptr noundef %0) #0 {
  %2 = getelementptr inbounds nuw i8, ptr %0, i64 616
  %3 = load ptr, ptr %2, align 8, !tbaa !201
  %.not = icmp eq ptr %3, null
  br i1 %.not, label %5, label %4

4:                                                ; preds = %1
  tail call void @lv_freetype_font_delete(ptr noundef nonnull %3) #9
  br label %5

5:                                                ; preds = %4, %1
  %6 = getelementptr inbounds nuw i8, ptr %0, i64 600
  %7 = load ptr, ptr %6, align 8, !tbaa !198
  %.not8 = icmp eq ptr %7, null
  br i1 %.not8, label %9, label %8

8:                                                ; preds = %5
  tail call void @lv_free(ptr noundef nonnull %7) #9
  br label %9

9:                                                ; preds = %8, %5
  %10 = getelementptr inbounds nuw i8, ptr %0, i64 576
  tail call void @lv_array_deinit(ptr noundef nonnull %10) #9
  %11 = getelementptr inbounds nuw i8, ptr %0, i64 632
  %12 = load ptr, ptr %11, align 8, !tbaa !200
  tail call void @lv_vector_path_delete(ptr noundef %12) #9
  ret void
}